ccopy_reg
_reconstructor
p0
(csensor_msgs.msg._CameraInfo
CameraInfo
p1
c__builtin__
object
p2
Ntp3
Rp4
(lp5
g0
(cstd_msgs.msg._Header
Header
p6
g2
Ntp7
Rp8
(lp9
I215891
ag0
(cgenpy.rostime
Time
p10
g2
Ntp11
Rp12
(lp13
I1486464565
aI591662982
abaS'cam_stereo_ar0230_left_optical'
p14
abaI1024
aI1920
aS'plumb_bob'
p15
a(F-0.116324
F0.148023
F0.0
F0.0
F0.043123999999999996
tp16
a(F1481.5
F0.0
F960.252
F0.0
F1481.5
F494.676
F0.0
F0.0
F1.0
tp17
a(F0.999981
F-0.0056879999999999995
F-0.0024419999999999997
F0.005706999999999999
F0.9999509999999999
F0.008043999999999999
F0.0023959999999999997
F-0.008058
F0.999965
tp18
a(F1377.425131
F0.0
F979.645973
F0.0
F0.0
F1377.425131
F489.63644
F0.0
F0.0
F0.0
F1.0
F0.0
tp19
aI0
aI0
ag0
(csensor_msgs.msg._RegionOfInterest
RegionOfInterest
p20
g2
Ntp21
Rp22
(lp23
I0
aI0
aI0
aI0
aI00
abab.