ccopy_reg
_reconstructor
p0
(csensor_msgs.msg._CameraInfo
CameraInfo
p1
c__builtin__
object
p2
Ntp3
Rp4
(lp5
g0
(cstd_msgs.msg._Header
Header
p6
g2
Ntp7
Rp8
(lp9
I66266
ag0
(cgenpy.rostime
Time
p10
g2
Ntp11
Rp12
(lp13
I1480852458
aI988435117
abaS'cam_stereo_ar0230_left_optical'
p14
abaI1024
aI1920
aS'plumb_bob'
p15
a(F-0.104986
F0.112386
F0.0
F0.0
F0.075598
tp16
a(F1488.53
F0.0
F954.184
F0.0
F1488.53
F497.563
F0.0
F0.0
F1.0
tp17
a(F0.999987
F-0.004811
F0.001421
F0.0047989999999999994
F0.999957
F0.007982
F-0.001459
F-0.007976
F0.9999669999999999
tp18
a(F1397.483784
F0.0
F968.745232
F0.0
F0.0
F1397.483784
F491.877815
F0.0
F0.0
F0.0
F1.0
F0.0
tp19
aI0
aI0
ag0
(csensor_msgs.msg._RegionOfInterest
RegionOfInterest
p20
g2
Ntp21
Rp22
(lp23
I0
aI0
aI0
aI0
aI00
abab.